target datalayout = "e-m:e-p270:32:32-p271:32:32-p272:64:64-i64:64-i128:128-f80:128-n8:16:32:64-S128"
target triple = "x86_64-pc-linux-gnu"

%"class.std::__cxx11::basic_string" = type { %"struct.std::__cxx11::basic_string<char>::_Alloc_hider", i64, %union.anon }
%"struct.std::__cxx11::basic_string<char>::_Alloc_hider" = type { ptr }
%union.anon = type { i64, [8 x i8] }
%"class.std::vector" = type { %"struct.std::_Vector_base" }
%"struct.std::_Vector_base" = type { %"struct.std::_Vector_base<std::__cxx11::basic_string<char>, std::allocator<std::__cxx11::basic_string<char>>>::_Vector_impl" }
%"struct.std::_Vector_base<std::__cxx11::basic_string<char>, std::allocator<std::__cxx11::basic_string<char>>>::_Vector_impl" = type { %"struct.std::_Vector_base<std::__cxx11::basic_string<char>, std::allocator<std::__cxx11::basic_string<char>>>::_Vector_impl_data" }
%"struct.std::_Vector_base<std::__cxx11::basic_string<char>, std::allocator<std::__cxx11::basic_string<char>>>::_Vector_impl_data" = type { ptr, ptr, ptr }
%"struct.Json::BuiltStyledStreamWriter" = type <{ %"class.Json::StreamWriter", %"class.std::vector", %"class.std::__cxx11::basic_string", i32, [4 x i8], %"class.std::__cxx11::basic_string", i32, [4 x i8], %"class.std::__cxx11::basic_string", %"class.std::__cxx11::basic_string", %"class.std::__cxx11::basic_string", i8, [3 x i8], i32, i32, [4 x i8] }>
%"class.Json::StreamWriter" = type { ptr, ptr }

; Function Attrs: mustprogress uwtable
define dso_local void @_ZN4Json23BuiltStyledStreamWriter11writeIndentEv(ptr noundef nonnull align 8 dereferenceable(228) %0) #0 align 2 {
  %2 = alloca ptr, align 8
  store ptr %0, ptr %2, align 8
  %3 = load ptr, ptr %2, align 8
  %4 = getelementptr inbounds %"struct.Json::BuiltStyledStreamWriter", ptr %3, i32 0, i32 5
  %5 = call noundef zeroext i1 @_ZNKSt7__cxx1112basic_stringIcSt11char_traitsIcESaIcEE5emptyEv(ptr noundef nonnull align 8 dereferenceable(32) %4) #9
  br i1 %5, label %12, label %6

6:                                                ; preds = %1
  %7 = getelementptr inbounds %"class.Json::StreamWriter", ptr %3, i32 0, i32 1
  %8 = load ptr, ptr %7, align 8
  %9 = call noundef nonnull align 8 dereferenceable(8) ptr @_ZStlsISt11char_traitsIcEERSt13basic_ostreamIcT_ES5_c(ptr noundef nonnull align 8 dereferenceable(8) %8, i8 noundef signext 10)
  %10 = getelementptr inbounds %"struct.Json::BuiltStyledStreamWriter", ptr %3, i32 0, i32 2
  %11 = call noundef nonnull align 8 dereferenceable(8) ptr @_ZStlsIcSt11char_traitsIcESaIcEERSt13basic_ostreamIT_T0_ES7_RKNSt7__cxx1112basic_stringIS4_S5_T1_EE(ptr noundef nonnull align 8 dereferenceable(8) %9, ptr noundef nonnull align 8 dereferenceable(32) %10)
  br label %12

12:                                               ; preds = %6, %1
  ret void
}

; Function Attrs: mustprogress uwtable
define dso_local noundef i32 @_ZN4Json23BuiltStyledStreamWriter5writeERKNS_5ValueEPSo(ptr noundef nonnull align 8 dereferenceable(228) %0, ptr noundef nonnull align 8 dereferenceable(40) %1, ptr noundef %2) unnamed_addr #0 align 2 {
  %4 = alloca ptr, align 8
  %5 = alloca ptr, align 8
  %6 = alloca ptr, align 8
  store ptr %0, ptr %4, align 8
  store ptr %1, ptr %5, align 8
  store ptr %2, ptr %6, align 8
  %7 = load ptr, ptr %4, align 8
  %8 = load ptr, ptr %6, align 8
  %9 = getelementptr inbounds %"class.Json::StreamWriter", ptr %7, i32 0, i32 1
  store ptr %8, ptr %9, align 8
  %10 = getelementptr inbounds %"struct.Json::BuiltStyledStreamWriter", ptr %7, i32 0, i32 11
  %11 = load i8, ptr %10, align 8
  %12 = and i8 %11, -2
  %13 = or i8 %12, 0
  store i8 %13, ptr %10, align 8
  %14 = getelementptr inbounds %"struct.Json::BuiltStyledStreamWriter", ptr %7, i32 0, i32 11
  %15 = load i8, ptr %14, align 8
  %16 = and i8 %15, -3
  %17 = or i8 %16, 2
  store i8 %17, ptr %14, align 8
  %18 = getelementptr inbounds %"struct.Json::BuiltStyledStreamWriter", ptr %7, i32 0, i32 2
  call void @_ZNSt7__cxx1112basic_stringIcSt11char_traitsIcESaIcEE5clearEv(ptr noundef nonnull align 8 dereferenceable(32) %18) #9
  %19 = load ptr, ptr %5, align 8
  call void @_ZN4Json23BuiltStyledStreamWriter23writeCommentBeforeValueERKNS_5ValueE(ptr noundef nonnull align 8 dereferenceable(228) %7, ptr noundef nonnull align 8 dereferenceable(40) %19)
  %20 = getelementptr inbounds %"struct.Json::BuiltStyledStreamWriter", ptr %7, i32 0, i32 11
  %21 = load i8, ptr %20, align 8
  %22 = lshr i8 %21, 1
  %23 = and i8 %22, 1
  %24 = trunc i8 %23 to i1
  br i1 %24, label %26, label %25

25:                                               ; preds = %3
  call void @_ZN4Json23BuiltStyledStreamWriter11writeIndentEv(ptr noundef nonnull align 8 dereferenceable(228) %7)
  br label %26

26:                                               ; preds = %25, %3
  %27 = getelementptr inbounds %"struct.Json::BuiltStyledStreamWriter", ptr %7, i32 0, i32 11
  %28 = load i8, ptr %27, align 8
  %29 = and i8 %28, -3
  %30 = or i8 %29, 2
  store i8 %30, ptr %27, align 8
  %31 = load ptr, ptr %5, align 8
  call void @_ZN4Json23BuiltStyledStreamWriter10writeValueERKNS_5ValueE(ptr noundef nonnull align 8 dereferenceable(228) %7, ptr noundef nonnull align 8 dereferenceable(40) %31)
  %32 = load ptr, ptr %5, align 8
  call void @_ZN4Json23BuiltStyledStreamWriter32writeCommentAfterValueOnSameLineERKNS_5ValueE(ptr noundef nonnull align 8 dereferenceable(228) %7, ptr noundef nonnull align 8 dereferenceable(40) %32)
  %33 = getelementptr inbounds %"class.Json::StreamWriter", ptr %7, i32 0, i32 1
  %34 = load ptr, ptr %33, align 8
  %35 = getelementptr inbounds %"struct.Json::BuiltStyledStreamWriter", ptr %7, i32 0, i32 10
  %36 = call noundef nonnull align 8 dereferenceable(8) ptr @_ZStlsIcSt11char_traitsIcESaIcEERSt13basic_ostreamIT_T0_ES7_RKNSt7__cxx1112basic_stringIS4_S5_T1_EE(ptr noundef nonnull align 8 dereferenceable(8) %34, ptr noundef nonnull align 8 dereferenceable(32) %35)
  %37 = getelementptr inbounds %"class.Json::StreamWriter", ptr %7, i32 0, i32 1
  store ptr null, ptr %37, align 8
  ret i32 0
}