; Function Attrs: mustprogress uwtable
define dso_local noundef i32 @_ZN4Json23BuiltStyledStreamWriter5writeERKNS_5ValueEPSo(ptr noundef nonnull align 8 dereferenceable(228) %0, ptr noundef nonnull align 8 dereferenceable(40) %1, ptr noundef %2) unnamed_addr #0 align 2 {
  %4 = getelementptr inbounds i8, ptr %0, i64 8
  store ptr %2, ptr %4, align 8
  %5 = getelementptr inbounds i8, ptr %0, i64 216
  %6 = load i8, ptr %5, align 8
  %7 = and i8 %6, -4
  %8 = or disjoint i8 %7, 2
  store i8 %8, ptr %5, align 8
  %9 = getelementptr inbounds i8, ptr %0, i64 40
  tail call void @_ZNSt7__cxx1112basic_stringIcSt11char_traitsIcESaIcEE5clearEv(ptr noundef nonnull align 8 dereferenceable(32) %9) #19
  tail call void @_ZN4Json23BuiltStyledStreamWriter23writeCommentBeforeValueERKNS_5ValueE(ptr noundef nonnull align 8 dereferenceable(228) %0, ptr noundef nonnull align 8 dereferenceable(40) %1)
  %10 = load i8, ptr %5, align 8
  %11 = and i8 %10, 2
  %.not = icmp eq i8 %11, 0
  br i1 %.not, label %12, label %_ZN4Json23BuiltStyledStreamWriter11writeIndentEv.exit

12:                                               ; preds = %3
  %13 = getelementptr inbounds i8, ptr %0, i64 80
  %14 = tail call noundef zeroext i1 @_ZNKSt7__cxx1112basic_stringIcSt11char_traitsIcESaIcEE5emptyEv(ptr noundef nonnull align 8 dereferenceable(32) %13) #19
  br i1 %14, label %_ZN4Json23BuiltStyledStreamWriter11writeIndentEv.exit, label %15

15:                                               ; preds = %12
  %16 = load ptr, ptr %4, align 8
  %17 = tail call noundef nonnull align 8 dereferenceable(8) ptr @_ZStlsISt11char_traitsIcEERSt13basic_ostreamIcT_ES5_c(ptr noundef nonnull align 8 dereferenceable(8) %16, i8 noundef signext 10)
  %18 = tail call noundef nonnull align 8 dereferenceable(8) ptr @_ZStlsIcSt11char_traitsIcESaIcEERSt13basic_ostreamIT_T0_ES7_RKNSt7__cxx1112basic_stringIS4_S5_T1_EE(ptr noundef nonnull align 8 dereferenceable(8) %17, ptr noundef nonnull align 8 dereferenceable(32) %9)
  br label %_ZN4Json23BuiltStyledStreamWriter11writeIndentEv.exit

_ZN4Json23BuiltStyledStreamWriter11writeIndentEv.exit: ; preds = %15, %12, %3
  %19 = load i8, ptr %5, align 8
  %20 = or i8 %19, 2
  store i8 %20, ptr %5, align 8
  tail call void @_ZN4Json23BuiltStyledStreamWriter10writeValueERKNS_5ValueE(ptr noundef nonnull align 8 dereferenceable(228) %0, ptr noundef nonnull align 8 dereferenceable(40) %1)
  tail call void @_ZN4Json23BuiltStyledStreamWriter32writeCommentAfterValueOnSameLineERKNS_5ValueE(ptr noundef nonnull align 8 dereferenceable(228) %0, ptr noundef nonnull align 8 dereferenceable(40) %1)
  %21 = load ptr, ptr %4, align 8
  %22 = getelementptr inbounds i8, ptr %0, i64 184
  %23 = tail call noundef nonnull align 8 dereferenceable(8) ptr @_ZStlsIcSt11char_traitsIcESaIcEERSt13basic_ostreamIT_T0_ES7_RKNSt7__cxx1112basic_stringIS4_S5_T1_EE(ptr noundef nonnull align 8 dereferenceable(8) %21, ptr noundef nonnull align 8 dereferenceable(32) %22)
  store ptr null, ptr %4, align 8
  ret i32 0
}